; Function Attrs: nofree norecurse nosync nounwind null_pointer_is_valid sspstrong memory(none) uwtable
define ptr @wtap_compression_type_extension(i32 noundef %0) local_unnamed_addr #3 {
  br label %2

2:                                                ; preds = %1, %8
  %3 = phi i32 [ 1, %1 ], [ %10, %8 ]
  %.0610 = phi ptr [ @compression_types, %1 ], [ %9, %8 ]
  %4 = icmp eq i32 %3, %0
  br i1 %4, label %5, label %8

5:                                                ; preds = %2
  %6 = getelementptr inbounds nuw i8, ptr %.0610, i64 8
  %7 = load ptr, ptr %6, align 8
  br label %.loopexit

8:                                                ; preds = %2
  %9 = getelementptr i8, ptr %.0610, i64 40
  %10 = load i32, ptr %9, align 8
  %.not = icmp eq i32 %10, 0
  br i1 %.not, label %.loopexit, label %2, !llvm.loop !13

.loopexit:                                        ; preds = %8, %5
  %spec.select = phi ptr [ %7, %5 ], [ null, %8 ]
  ret ptr %spec.select
}